; Function Attrs: nounwind uwtable
define void @lv_theme_apply(ptr noundef %0) local_unnamed_addr #0 {
  %.not.i = icmp eq ptr %0, null
  br i1 %.not.i, label %4, label %2

2:                                                ; preds = %1
  %3 = tail call ptr @lv_obj_get_display(ptr noundef nonnull %0) #3
  br label %lv_theme_get_from_obj.exit

4:                                                ; preds = %1
  %5 = tail call ptr @lv_display_get_default() #3
  br label %lv_theme_get_from_obj.exit

lv_theme_get_from_obj.exit:                       ; preds = %2, %4
  %6 = phi ptr [ %3, %2 ], [ %5, %4 ]
  %7 = tail call ptr @lv_display_get_theme(ptr noundef %6) #3
  %8 = icmp eq ptr %7, null
  br i1 %8, label %10, label %9

9:                                                ; preds = %lv_theme_get_from_obj.exit
  tail call void @lv_obj_remove_style_all(ptr noundef %0) #3
  tail call fastcc void @apply_theme_recursion(ptr noundef %7, ptr noundef %0)
  br label %10

10:                                               ; preds = %lv_theme_get_from_obj.exit, %9
  ret void
}